; ModuleID = '25/510.cpp'
source_filename = "25/510.cpp"
target datalayout = "e-m:e-p270:32:32-p271:32:32-p272:64:64-i64:64-f80:128-n8:16:32:64-S128"
target triple = "x86_64-pc-linux-gnu"

%"class.std::ios_base::Init" = type { i8 }
%"class.std::basic_istream" = type { i32 (...)**, i64, %"class.std::basic_ios" }
%"class.std::basic_ios" = type { %"class.std::ios_base", %"class.std::basic_ostream"*, i8, i8, %"class.std::basic_streambuf"*, %"class.std::ctype"*, %"class.std::num_put"*, %"class.std::num_get"* }
%"class.std::ios_base" = type { i32 (...)**, i64, i64, i32, i32, i32, %"struct.std::ios_base::_Callback_list"*, %"struct.std::ios_base::_Words", [8 x %"struct.std::ios_base::_Words"], i32, %"struct.std::ios_base::_Words"*, %"class.std::locale" }
%"struct.std::ios_base::_Callback_list" = type { %"struct.std::ios_base::_Callback_list"*, void (i32, %"class.std::ios_base"*, i32)*, i32, i32 }
%"struct.std::ios_base::_Words" = type { i8*, i64 }
%"class.std::locale" = type { %"class.std::locale::_Impl"* }
%"class.std::locale::_Impl" = type { i32, %"class.std::locale::facet"**, i64, %"class.std::locale::facet"**, i8** }
%"class.std::locale::facet" = type <{ i32 (...)**, i32, [4 x i8] }>
%"class.std::basic_ostream" = type { i32 (...)**, %"class.std::basic_ios" }
%"class.std::basic_streambuf" = type { i32 (...)**, i8*, i8*, i8*, i8*, i8*, i8*, %"class.std::locale" }
%"class.std::ctype" = type <{ %"class.std::locale::facet.base", [4 x i8], %struct.__locale_struct*, i8, [7 x i8], i32*, i32*, i16*, i8, [256 x i8], [256 x i8], i8, [6 x i8] }>
%"class.std::locale::facet.base" = type <{ i32 (...)**, i32 }>
%struct.__locale_struct = type { [13 x %struct.__locale_data*], i16*, i32*, i32*, [13 x i8*] }
%struct.__locale_data = type opaque
%"class.std::num_put" = type { %"class.std::locale::facet.base", [4 x i8] }
%"class.std::num_get" = type { %"class.std::locale::facet.base", [4 x i8] }

@_ZStL8__ioinit = internal global %"class.std::ios_base::Init" zeroinitializer, align 1
@__dso_handle = external hidden global i8
@_ZSt3cin = external dso_local global %"class.std::basic_istream", align 8
@_ZSt4cout = external dso_local global %"class.std::basic_ostream", align 8
@.str = private unnamed_addr constant [2 x i8] c"1\00", align 1
@llvm.global_ctors = appending global [1 x { i32, void ()*, i8* }] [{ i32, void ()*, i8* } { i32 65535, void ()* @_GLOBAL__sub_I_510.cpp, i8* null }]

; Function Attrs: noinline uwtable
define internal void @__cxx_global_var_init() #0 section ".text.startup" {
  call void @_ZNSt8ios_base4InitC1Ev(%"class.std::ios_base::Init"* @_ZStL8__ioinit)
  %1 = call i32 @__cxa_atexit(void (i8*)* bitcast (void (%"class.std::ios_base::Init"*)* @_ZNSt8ios_base4InitD1Ev to void (i8*)*), i8* getelementptr inbounds (%"class.std::ios_base::Init", %"class.std::ios_base::Init"* @_ZStL8__ioinit, i32 0, i32 0), i8* @__dso_handle) #3
  ret void
}

declare dso_local void @_ZNSt8ios_base4InitC1Ev(%"class.std::ios_base::Init"*) unnamed_addr #1

; Function Attrs: nounwind
declare dso_local void @_ZNSt8ios_base4InitD1Ev(%"class.std::ios_base::Init"*) unnamed_addr #2

; Function Attrs: nounwind
declare dso_local i32 @__cxa_atexit(void (i8*)*, i8*, i8*) #3

; Function Attrs: noinline norecurse uwtable
define dso_local i32 @main() #4 {
  %1 = alloca i32, align 4
  %2 = alloca i32, align 4
  %3 = alloca i32, align 4
  %4 = alloca i32, align 4
  %5 = alloca i32, align 4
  %6 = alloca i32, align 4
  %7 = alloca [1000 x i32], align 16
  store i32 0, i32* %1, align 4
  %8 = call dereferenceable(280) %"class.std::basic_istream"* @_ZNSirsERi(%"class.std::basic_istream"* @_ZSt3cin, i32* dereferenceable(4) %2)
  %9 = bitcast [1000 x i32]* %7 to i8*
  call void @llvm.memset.p0i8.i64(i8* align 16 %9, i8 0, i64 4000, i1 false)
  %10 = getelementptr inbounds [1000 x i32], [1000 x i32]* %7, i64 0, i64 0
  store i32 2, i32* %10, align 16
  store i32 0, i32* %3, align 4
  store i32 1, i32* %6, align 4
  br label %11

11:                                               ; preds = %58, %0
  %12 = load i32, i32* %3, align 4
  %13 = load i32, i32* %2, align 4
  %14 = sub nsw i32 %13, 1
  %15 = icmp slt i32 %12, %14
  br i1 %15, label %16, label %61

16:                                               ; preds = %11
  store i32 0, i32* %4, align 4
  store i32 0, i32* %5, align 4
  br label %17

17:                                               ; preds = %54, %16
  %18 = load i32, i32* %4, align 4
  %19 = load i32, i32* %6, align 4
  %20 = icmp slt i32 %18, %19
  br i1 %20, label %21, label %57

21:                                               ; preds = %17
  %22 = load i32, i32* %4, align 4
  %23 = sext i32 %22 to i64
  %24 = getelementptr inbounds [1000 x i32], [1000 x i32]* %7, i64 0, i64 %23
  %25 = load i32, i32* %24, align 4
  %26 = load i32, i32* %4, align 4
  %27 = sext i32 %26 to i64
  %28 = getelementptr inbounds [1000 x i32], [1000 x i32]* %7, i64 0, i64 %27
  %29 = load i32, i32* %28, align 4
  %30 = add nsw i32 %25, %29
  %31 = load i32, i32* %5, align 4
  %32 = add nsw i32 %30, %31
  %33 = load i32, i32* %4, align 4
  %34 = sext i32 %33 to i64
  %35 = getelementptr inbounds [1000 x i32], [1000 x i32]* %7, i64 0, i64 %34
  store i32 %32, i32* %35, align 4
  %36 = load i32, i32* %4, align 4
  %37 = sext i32 %36 to i64
  %38 = getelementptr inbounds [1000 x i32], [1000 x i32]* %7, i64 0, i64 %37
  %39 = load i32, i32* %38, align 4
  %40 = icmp sgt i32 %39, 9
  br i1 %40, label %41, label %52

41:                                               ; preds = %21
  %42 = load i32, i32* %4, align 4
  %43 = sext i32 %42 to i64
  %44 = getelementptr inbounds [1000 x i32], [1000 x i32]* %7, i64 0, i64 %43
  %45 = load i32, i32* %44, align 4
  %46 = sub nsw i32 %45, 10
  %47 = load i32, i32* %4, align 4
  %48 = sext i32 %47 to i64
  %49 = getelementptr inbounds [1000 x i32], [1000 x i32]* %7, i64 0, i64 %48
  store i32 %46, i32* %49, align 4
  store i32 1, i32* %5, align 4
  %50 = load i32, i32* %6, align 4
  %51 = add nsw i32 %50, 1
  store i32 %51, i32* %6, align 4
  br label %53

52:                                               ; preds = %21
  store i32 0, i32* %5, align 4
  br label %53

53:                                               ; preds = %52, %41
  br label %54

54:                                               ; preds = %53
  %55 = load i32, i32* %4, align 4
  %56 = add nsw i32 %55, 1
  store i32 %56, i32* %4, align 4
  br label %17

57:                                               ; preds = %17
  br label %58

58:                                               ; preds = %57
  %59 = load i32, i32* %3, align 4
  %60 = add nsw i32 %59, 1
  store i32 %60, i32* %3, align 4
  br label %11

61:                                               ; preds = %11
  store i32 99, i32* %3, align 4
  br label %62

62:                                               ; preds = %73, %61
  %63 = load i32, i32* %3, align 4
  %64 = icmp sgt i32 %63, 0
  br i1 %64, label %65, label %76

65:                                               ; preds = %62
  %66 = load i32, i32* %3, align 4
  %67 = sext i32 %66 to i64
  %68 = getelementptr inbounds [1000 x i32], [1000 x i32]* %7, i64 0, i64 %67
  %69 = load i32, i32* %68, align 4
  %70 = icmp ne i32 %69, 0
  br i1 %70, label %71, label %72

71:                                               ; preds = %65
  br label %76

72:                                               ; preds = %65
  br label %73

73:                                               ; preds = %72
  %74 = load i32, i32* %3, align 4
  %75 = add nsw i32 %74, -1
  store i32 %75, i32* %3, align 4
  br label %62

76:                                               ; preds = %71, %62
  %77 = load i32, i32* %3, align 4
  store i32 %77, i32* %4, align 4
  br label %78

78:                                               ; preds = %92, %76
  %79 = load i32, i32* %4, align 4
  %80 = icmp sge i32 %79, 0
  br i1 %80, label %81, label %84

81:                                               ; preds = %78
  %82 = load i32, i32* %2, align 4
  %83 = icmp ne i32 %82, 0
  br label %84

84:                                               ; preds = %81, %78
  %85 = phi i1 [ false, %78 ], [ %83, %81 ]
  br i1 %85, label %86, label %95

86:                                               ; preds = %84
  %87 = load i32, i32* %4, align 4
  %88 = sext i32 %87 to i64
  %89 = getelementptr inbounds [1000 x i32], [1000 x i32]* %7, i64 0, i64 %88
  %90 = load i32, i32* %89, align 4
  %91 = call dereferenceable(272) %"class.std::basic_ostream"* @_ZNSolsEi(%"class.std::basic_ostream"* @_ZSt4cout, i32 %90)
  br label %92

92:                                               ; preds = %86
  %93 = load i32, i32* %4, align 4
  %94 = add nsw i32 %93, -1
  store i32 %94, i32* %4, align 4
  br label %78

95:                                               ; preds = %84
  %96 = load i32, i32* %2, align 4
  %97 = icmp eq i32 %96, 0
  br i1 %97, label %98, label %100

98:                                               ; preds = %95
  %99 = call dereferenceable(272) %"class.std::basic_ostream"* @_ZStlsISt11char_traitsIcEERSt13basic_ostreamIcT_ES5_PKc(%"class.std::basic_ostream"* dereferenceable(272) @_ZSt4cout, i8* getelementptr inbounds ([2 x i8], [2 x i8]* @.str, i64 0, i64 0))
  br label %100

100:                                              ; preds = %98, %95
  %101 = call dereferenceable(272) %"class.std::basic_ostream"* @_ZNSolsEPFRSoS_E(%"class.std::basic_ostream"* @_ZSt4cout, %"class.std::basic_ostream"* (%"class.std::basic_ostream"*)* @_ZSt4endlIcSt11char_traitsIcEERSt13basic_ostreamIT_T0_ES6_)
  ret i32 0
}

declare dso_local dereferenceable(280) %"class.std::basic_istream"* @_ZNSirsERi(%"class.std::basic_istream"*, i32* dereferenceable(4)) #1

; Function Attrs: argmemonly nounwind willreturn
declare void @llvm.memset.p0i8.i64(i8* nocapture writeonly, i8, i64, i1 immarg) #5

declare dso_local dereferenceable(272) %"class.std::basic_ostream"* @_ZNSolsEi(%"class.std::basic_ostream"*, i32) #1

declare dso_local dereferenceable(272) %"class.std::basic_ostream"* @_ZStlsISt11char_traitsIcEERSt13basic_ostreamIcT_ES5_PKc(%"class.std::basic_ostream"* dereferenceable(272), i8*) #1

declare dso_local dereferenceable(272) %"class.std::basic_ostream"* @_ZNSolsEPFRSoS_E(%"class.std::basic_ostream"*, %"class.std::basic_ostream"* (%"class.std::basic_ostream"*)*) #1

declare dso_local dereferenceable(272) %"class.std::basic_ostream"* @_ZSt4endlIcSt11char_traitsIcEERSt13basic_ostreamIT_T0_ES6_(%"class.std::basic_ostream"* dereferenceable(272)) #1

; Function Attrs: noinline uwtable
define internal void @_GLOBAL__sub_I_510.cpp() #0 section ".text.startup" {
  call void @__cxx_global_var_init()
  ret void
}


!llvm.module.flags = !{!0}
!llvm.ident = !{!1}

!0 = !{i32 1, !"wchar_size", i32 4}
!1 = !{!"clang version 10.0.0-4ubuntu1 "}
